(dp0
S'y'
p1
(lp2
F-0.011685870338504808
aF0.005329852075667087
aF-0.005591094251597204
aF-0.0003314925544438351
aF-0.011374861668124917
aF-0.007974893003288623
aF-0.0072109108404045915
aF-0.013075418584197421
aF-0.022217824967676016
aF-0.0150041128937947
aF-0.04085859379736311
aF-0.03447570615118042
aF-0.05175114393154099
aF-0.041391222645902476
aF-0.03608648511884807
aF-0.0480542838316167
aF-0.04510744496777888
aF-0.04410064395204774
aF-0.04805217802523922
aF-0.048476055155069066
aF-0.045550944953848996
aF-0.05519962542931096
aF-0.05721437663323483
aF-0.048859190333651666
aF-0.04963715692295842
aF-0.046107430993607666
aF-0.045797160352326644
aF-0.047808765423168614
aF-0.036002618885238
aF-0.031827866020214465
aF-0.0278677732345937
aF-0.016019294119159377
aF-0.020409435548045966
aF-0.020346669017181143
aF-0.03511117022372461
aF-0.035836592924493836
aF-0.06119785691995905
aF-0.06389727973750196
aF-0.07492822366846164
aF-0.07358151463155174
aF-0.0831209995696831
aF-0.06704476555733627
aF-0.07833381039015992
aF-0.07813953075836767
aF-0.0716077645023708
aF-0.0738300120647996
aF-0.06889302360830817
aF-0.0761083375656477
aF-0.09303262317276527
aF-0.09013026204532332
aF-0.1123788205893312
aF-0.09691749054523545
aF-0.1142199260525072
aF-0.10198667151245142
aF-0.10512883274431843
aF-0.1241924639627678
aF-0.11755345374506546
aF-0.12395978458365484
aF-0.1383675195047981
aF-0.12002358372499078
aF-0.13794819911536912
aF-0.13540334512323096
aF-0.1542466490695554
aF-0.15047444158754117
aF-0.1463058321329481
aF-0.16585318320595183
aF-0.14276860072475983
aF-0.15075855682377004
aF-0.14862978707363747
aF-0.1386417338808592
aF-0.175287317628125
aF-0.22967506809883584
aF-0.32660161104527563
aF-0.4268164828125641
aF-0.5011312458276878
aF-0.6116386374014235
aF-0.6568225263794693
aF-0.7039452277736965
aF-0.7148153358003885
aF-0.6839288402166137
aF-0.6478946067025734
aF-0.6247300781122271
aF-0.5996013026582826
aF-0.6063462025547935
aF-0.6076546108312131
aF-0.6016604939887422
aF-0.628858014539856
aF-0.6407717732537145
aF-0.646914106923598
aF-0.6591924619834975
aF-0.6233604083537915
aF-0.6477383476607467
aF-0.6476692045462508
aF-0.6466496435094709
aF-0.6444380957741638
aF-0.6409794857104494
aF-0.656830357850345
aF-0.6646261633455735
aF-0.6419972028177974
aF-0.6508338294130962
aF-0.6453164211644756
aF-0.6441427890073459
aF-0.6452499295748003
aF-0.6495884614166352
aF-0.6399548597990551
aF-0.6540719468374326
aF-0.6594403662788638
aF-0.6709705372034932
aF-0.6659223048095854
aF-0.6654895264465981
aF-0.6747150520764741
aF-0.663008450213551
aF-0.6723740278585718
aF-0.6748607927073748
aF-0.6804432541123491
aF-0.7003025012757131
aF-0.6980479679143896
aF-0.7056086870304827
aF-0.6962723013813775
aF-0.7272431307951177
aF-0.7101260183061615
aF-0.7169745543422512
aF-0.7067905431717186
aF-0.7342737922735814
aF-0.749821652827479
aF-0.7925505338675081
aF-0.8580177485156469
aF-0.9206514187117999
aF-1.0156430208082587
aF-1.0836066401004907
aF-1.1742751079625537
aF-1.2574414811418113
aF-1.3581002206095194
aF-1.4434174671964972
aF-1.5293735273351643
aF-1.612425197263103
aF-1.7081797167292048
aF-1.7981536807045784
aF-1.8906385522957199
aF-1.9789413880006401
aF-2.068036949632321
aF-2.1678204592460975
aF-2.2590112209429853
aF-2.348591217011818
aF-2.444212305515231
aF-2.546822867048468
aF-2.6287267982349807
aF-2.738532677240858
aF-2.8198686845098444
aF-2.9191642652571432
aF-3.0078257114863556
aF-3.1118691532395517
aF-3.204244065517105
aF-3.2734188703897074
aF-3.337565727980228
aF-3.408464727889222
aF-3.4295037403688604
aF-3.4933011741150306
aF-3.5062541078157152
aF-3.5463907777518213
aF-3.536205292151029
aF-3.549642587139532
aF-3.5462646711150283
aF-3.544451935604243
aF-3.509862278854112
aF-3.5083145984585773
aF-3.4461276885510688
aF-3.424508320279714
aF-3.429435239287386
aF-3.4126983958261334
aF-3.418222996321303
aF-3.425205557288129
aF-3.4027518557178222
aF-3.424902837757689
aF-3.414806581893405
aF-3.400341075297455
aF-3.428192392424563
aF-3.4150764913168197
aF-3.424194173020183
aF-3.4333211885858943
aF-3.4377357259156
aF-3.4408040675361167
aF-3.460240995622221
aF-3.4510524753284937
aF-3.4525470122195534
aF-3.389822657348831
aF-3.338820123337575
aF-3.2767871872757395
aF-3.1831088636589118
aF-3.1000444549116786
aF-3.0071040680672603
aF-2.9286795166330695
aF-2.8179960497383565
aF-2.7259844538127926
aF-2.627832879232638
aF-2.5419709530461367
aF-2.4309476818064417
aF-2.3217394536830405
aF-2.2264926181526876
aF-2.167811069987435
aF-2.1016237057336373
aF-2.0168361267091792
aF-1.9341923255865976
aF-1.8469109908516164
aF-1.7398257816856104
aF-1.6525218472697851
aF-1.546038721605501
aF-1.4353393622765267
aF-1.359267996295982
aF-1.2680245950543443
aF-1.1863976254298971
aF-1.145829424838345
aF-1.085156371675486
aF-1.059662305386355
aF-1.0500109556859027
aF-1.0252545267884723
aF-1.0192910206642671
aF-1.023878813159025
aF-1.0417388436998358
aF-1.0592767430234433
aF-1.1189479425983884
aF-1.134402305308344
aF-1.1509655006928616
aF-1.1860209730974272
aF-1.1774031918009287
aF-1.1790505297033267
aF-1.177057001042416
aF-1.1854040161155315
aF-1.1910687331905723
aF-1.1925784174957585
aF-1.1959887020297726
aF-1.2241790192661903
aF-1.202965673769297
aF-1.1995729841660123
aF-1.2516641539502729
aF-1.3188672583845154
aF-1.3935828331861473
aF-1.496266607434733
aF-1.583984439407963
aF-1.6392959391459085
aF-1.745851032471069
aF-1.811727562849312
aF-1.8997005024340516
aF-2.02251431769675
aF-2.0454297573649773
aF-2.1314334731369193
aF-2.2243850950536714
aF-2.2542244665536817
aF-2.340820035748523
aF-2.4428599220358107
aF-2.517820464994288
aF-2.6043433880336355
aF-2.660781650268583
aF-2.7680253825826986
aF-2.844708849522646
aF-2.9232964837115443
aF-3.046228829768862
aF-3.114119099958388
aF-3.1922391704511917
aF-3.286902919865673
aF-3.3398181602605588
aF-3.3941744783035848
aF-3.424362373700231
aF-3.4571245964904067
aF-3.499854987291495
aF-3.517508971007916
aF-3.506818200184224
aF-3.499528221353263
aF-3.4789321805885454
aF-3.4635258516991105
aF-3.453887924793276
aF-3.4231852851432474
aF-3.3911854917235913
aF-3.3735302163022975
aF-3.3838050501161883
aF-3.3670911423419128
aF-3.3728851707880936
aF-3.374983215437694
aF-3.363598845194083
aF-3.3830169996300343
aF-3.344413784897755
aF-3.3426585061482488
aF-3.3464831719837993
aF-3.31459533923832
aF-3.325670058922924
aF-3.4359681712330272
aF-3.485811917296468
aF-3.5747239422762656
aF-3.644919477955727
aF-3.738910751865543
aF-3.835119631405864
aF-3.9260291598532975
aF-4.014651238109042
aF-4.124422993750771
aF-4.2175125421484125
aF-4.335389777379012
aF-4.431805065903974
aF-4.542084966814404
aF-4.595413521155631
aF-4.678388204640772
aF-4.7588547269438894
aF-4.83972073654905
aF-4.938700113914071
aF-5.01939580945623
aF-5.111456567968511
aF-5.18849470350867
aF-5.265666350310825
aF-5.304533991589625
aF-5.331405717644198
aF-5.357754555300778
aF-5.348689505102365
aF-5.341440386468763
aF-5.320176363238874
aF-5.278347000656422
aF-5.260647683314908
aF-5.173021863687294
aF-5.158027073242715
aF-5.135691283214796
aF-5.119525606136081
aF-5.1514293937141495
aF-5.121229831787431
aF-5.1042903246804014
aF-5.145331379700209
aF-5.11504769404904
aF-5.12653999488257
aF-5.130999415276815
aF-5.122930527931474
aF-5.135156441945852
aF-5.115984111828202
aF-5.11810454865656
aF-5.117633869523382
aF-5.107906375171915
aF-5.080824926868596
aF-5.193185244359312
aF-5.26497258515562
aF-5.349275623104934
aF-5.428423485928482
aF-5.502848882234301
aF-5.591006776509043
aF-5.679543953486008
aF-5.777296924338253
aF-5.889889134589006
aF-5.985191139012743
aF-6.092764970684428
aF-6.200872333212353
aF-6.303541860653039
aF-6.413779749446417
aF-6.503016635638319
aF-6.597215398190068
aF-6.671510342171202
aF-6.785340218360617
aF-6.843270180502959
aF-6.9376359794517475
aF-6.997512727250315
aF-7.059216531875414
aF-7.066259970257124
aF-7.103416386302514
aF-7.083395524635195
aF-7.0728411439843
aF-7.035414859118451
aF-6.992935498640683
aF-7.0060743604779745
aF-6.951598245006241
aF-6.921648600183179
aF-6.848420775320847
aF-6.783126427081061
aF-6.701119639309808
aF-6.619262739098679
aF-6.540136481025227
aF-6.4352264850372025
aF-6.337020358738589
aF-6.2900168001699
aF-6.196092627470203
aF-6.163265893418748
aF-6.183025949634894
aF-6.170209769532239
aF-6.189700143858636
aF-6.191814748834241
aF-6.218548592833482
aF-6.22867899082862
aF-6.270891746748222
aF-6.3063622381212046
aF-6.3481601035784685
aF-6.419353274772101
aF-6.491092526435226
aF-6.5830964799984475
aF-6.671655162456649
aF-6.773370617622505
aF-6.824467736009301
aF-6.902838451260519
aF-6.960336715818924
aF-7.007161537766405
aF-7.065761149236169
aF-7.112607572597876
aF-7.117314273446236
aF-7.089578262377301
aF-7.04726260306601
aF-7.024568367393057
aF-6.936390062042065
aF-6.8821321686567805
aF-6.797127474717379
aF-6.69843994027229
aF-6.678920035032412
aF-6.547792885545272
aF-6.544646883175913
aF-6.406957636901213
aF-6.3532901443663885
aF-6.259433332269831
aF-6.177851637067547
aF-6.096144682576128
aF-6.015785935821058
aF-5.957457380196676
aF-5.864920846447587
aF-5.79909252378842
aF-5.693789016627692
aF-5.634366550056319
aF-5.529156425058201
aF-5.400317160931709
aF-5.306233947370038
aF-5.212702351504083
aF-5.097450289758709
aF-4.988868088750011
aF-4.892006440515863
aF-4.850962633891771
aF-4.796810096126172
aF-4.727898471767397
aF-4.701814980875793
aF-4.627377098304203
aF-4.611279500215509
aF-4.584501068606735
aF-4.591461515754377
aF-4.559831736152465
aF-4.601084673894909
aF-4.598048324708697
aF-4.639280293302905
aF-4.674045137257658
aF-4.738980797525813
aF-4.7621350147237145
aF-4.7767691817222
aF-4.786754348438898
aF-4.9097368466819375
aF-4.9729892060706185
aF-5.038516922523785
aF-5.151288905460084
aF-5.246631670878335
aF-5.350650742761457
aF-5.47379200296182
aF-5.591250267329609
aF-5.726259032348363
aF-5.87314584682419
aF-5.9492873283964745
aF-6.008879556770939
aF-6.066437682604791
aF-6.121636252641186
aF-6.132976254411191
aF-6.160015612222571
aF-6.169490472494349
aF-6.17432619999094
aF-6.171336179231277
aF-6.1853999878964325
aF-6.1780712507877
aF-6.181153289039842
aF-6.162751030918141
aF-6.146141887274415
aF-6.1426265741658295
aF-6.153188763385831
aF-6.152847681294013
aF-6.14997910497881
aF-6.121339296508882
aF-6.123099465353942
aF-6.101546919738296
aF-6.112296075328406
aF-6.142489630718933
aF-6.0822952335969624
aF-6.1554275373986425
aF-6.164004508340437
aF-6.160806441424002
aF-6.171778700134639
aF-6.200401508651838
aF-6.192934414686649
aF-6.194777761854916
aF-6.187854669613188
aF-6.19084550035077
aF-6.182370273083729
aF-6.198376726935621
aF-6.180142945743312
aF-6.204059235612427
aF-6.37546380875112
aF-6.545027769131591
aF-6.696681839066364
aF-6.829935037996328
aF-6.956133005030358
aF-7.059543929227412
aF-7.17215386611014
aF-7.226180315584816
aF-7.2951134192866105
aF-7.304207168670173
aF-7.303091273874474
aF-7.215187839161757
aF-7.112994801205719
aF-6.973269499792731
aF-6.85298718918401
aF-6.65717118473004
aF-6.493733986419438
aF-6.31253559384555
aF-6.152392248052647
aF-6.006851529520057
aF-5.831674513088967
aF-5.652984510988257
aF-5.435826251969215
aF-5.236946029876902
aF-5.073089540220068
aF-4.862905480741057
aF-4.652111659687485
aF-4.472010610752809
aF-4.259118818019625
aF-4.074603294291397
aF-3.8564564932112413
aF-3.669000838063677
aF-3.4796328717721163
aF-3.279141677844581
aF-3.076005124222774
aF-2.869507748944682
aF-2.660226454165146
aF-2.501096493259543
aF-2.2942986113787693
aF-2.096073855731141
aF-1.8983172353692943
aF-1.701776371474527
aF-1.5062671015085758
aF-1.3020639879785043
aF-1.1021454819953656
aF-0.9184512410218024
aF-0.7437790086286473
aF-0.5905232881882195
aF-0.4869466672197479
aF-0.4323677157482424
aF-0.40934984297467325
aF-0.4352606601110317
aF-0.5385771778492047
aF-0.5886182972642104
aF-0.6148240686430392
aF-0.6102816077819851
aF-0.5988718935555054
aF-0.5733595181149521
aF-0.5776674852458525
aF-0.5687578695210795
aF-0.46420508959863793
aF0.047847870323279196
aF0.20930135275082806
aF0.39205670838687534
aF0.43528018363637266
aF0.3859566991651489
aF0.3050514517498575
aF0.29491174641494905
aF0.2896193180824106
aF0.27036822004459515
aF0.2677746613632399
aF0.25452968891846006
aF0.2759359280023004
aF0.29248336692762555
aF0.279981576569973
aF0.2761467433266693
aF0.2866791842907483
asS'x'
p3
(lp4
F-0.0056793626840231145
aF0.008068750082640326
aF0.004246690398613634
aF-0.002835338804497446
aF-0.00012936394964994078
aF-0.020043130059515163
aF-0.04509789972080761
aF-0.09109265367392948
aF-0.13197171942944755
aF-0.19541261576878038
aF-0.26764782654809594
aF-0.3674386383468786
aF-0.4595486011930182
aF-0.549896060243081
aF-0.6207074122149135
aF-0.7331935553463479
aF-0.8337694092019796
aF-0.9265008119859134
aF-1.069682738570855
aF-1.1694059972426016
aF-1.2406963422814359
aF-1.388912877038659
aF-1.4643315477032728
aF-1.5594737608482807
aF-1.6978573729760364
aF-1.777107572781242
aF-1.8698169121336239
aF-1.9964907206842577
aF-2.0999219364444826
aF-2.1935748063608234
aF-2.2874188972676865
aF-2.3937562943692314
aF-2.5129780019704704
aF-2.6023940426809022
aF-2.7118365694113935
aF-2.8261113947823713
aF-2.924134719265457
aF-3.0345115327382532
aF-3.1244687550764696
aF-3.226988750201109
aF-3.336204870801719
aF-3.427658777269069
aF-3.5345118094556938
aF-3.637159233777916
aF-3.7258590122102007
aF-3.843645533123938
aF-3.94249308164091
aF-4.049172633773877
aF-4.132046993848805
aF-4.238461894676128
aF-4.345076079351686
aF-4.4467296927960405
aF-4.5610089691902225
aF-4.6481857286443535
aF-4.754208288578907
aF-4.875440440219111
aF-4.973948585990806
aF-5.085394334914293
aF-5.195208773551258
aF-5.285240686185815
aF-5.392245338337113
aF-5.50182764501175
aF-5.6078279837727125
aF-5.7105053785680715
aF-5.829733792916568
aF-5.942601078562737
aF-6.0366264348751075
aF-6.157895276850911
aF-6.2559737443774335
aF-6.36290302390005
aF-6.459335588688154
aF-6.541901866934775
aF-6.623727649834727
aF-6.697061117530631
aF-6.7574405217695555
aF-6.82360990355333
aF-6.906167872565635
aF-6.992598758843891
aF-7.119762660144997
aF-7.218359054961136
aF-7.319063713159871
aF-7.4101826630720735
aF-7.502973713051315
aF-7.622133106085962
aF-7.725976326383629
aF-7.842379242026561
aF-7.954761941719659
aF-8.056463512621058
aF-8.170801020959386
aF-8.284289778165805
aF-8.38224152515299
aF-8.49514737609516
aF-8.590144953680992
aF-8.673597387658385
aF-8.792661672809155
aF-8.88974286952295
aF-8.950149785623038
aF-9.05015433999534
aF-9.163282568950901
aF-9.26582526733109
aF-9.355636590012205
aF-9.44761953277803
aF-9.56245526983326
aF-9.66340233274719
aF-9.75967695842999
aF-9.880373756367096
aF-9.96350768970207
aF-10.058145852851828
aF-10.152016418765237
aF-10.267758241043207
aF-10.33432514089288
aF-10.440204048496406
aF-10.540167057512567
aF-10.598345381329283
aF-10.722927921462073
aF-10.81834448874695
aF-10.868956831957266
aF-10.981058081225287
aF-11.100742672367147
aF-11.145480179259806
aF-11.23082464327442
aF-11.366266520352466
aF-11.401188010396062
aF-11.504202308738101
aF-11.636036592939462
aF-11.68959216646406
aF-11.693771905648724
aF-11.814547295652755
aF-11.924900460517255
aF-11.937043922267263
aF-11.990500205121958
aF-12.061816149609456
aF-12.099800535363675
aF-12.088312080862162
aF-12.127831679640392
aF-12.16455440187306
aF-12.151310098842208
aF-12.164388629816582
aF-12.180166589677164
aF-12.1825359570465
aF-12.188079287606277
aF-12.171661702823842
aF-12.161048717923357
aF-12.153890247156928
aF-12.126512291056187
aF-12.101629157197106
aF-12.11014802726247
aF-12.098201264582237
aF-12.09739670937185
aF-12.100191087150757
aF-12.096219651257554
aF-12.091247041930815
aF-12.138583877700913
aF-12.208498215240382
aF-12.281642131852225
aF-12.36186450755019
aF-12.421644035704656
aF-12.52033576342426
aF-12.605308602149758
aF-12.697238272864887
aF-12.77180118055675
aF-12.849936038175816
aF-12.952293087862872
aF-13.010934233550866
aF-13.12122093172671
aF-13.234141008297804
aF-13.279955894760146
aF-13.33442596676965
aF-13.451916271705988
aF-13.52753838851632
aF-13.601677472683576
aF-13.708784762310046
aF-13.812249727520168
aF-13.888579310091778
aF-13.987962369297732
aF-14.08426144468228
aF-14.186020735152571
aF-14.27269414053913
aF-14.378146273127154
aF-14.48663907371809
aF-14.585388953700473
aF-14.689673746447347
aF-14.797393637968602
aF-14.89875352878658
aF-14.989337038621226
aF-15.096015384414242
aF-15.169434867861801
aF-15.248386984052715
aF-15.302909771252633
aF-15.344242390735701
aF-15.39667937028681
aF-15.407180548896777
aF-15.452348417335102
aF-15.473687201187893
aF-15.456914309313365
aF-15.468277149454124
aF-15.447379807900512
aF-15.414012246331197
aF-15.384291689296436
aF-15.327515521743985
aF-15.295031822741315
aF-15.292902843690205
aF-15.298543299988317
aF-15.303272643125089
aF-15.29384657797317
aF-15.306163746964167
aF-15.299586083603241
aF-15.33556750337986
aF-15.358393790100513
aF-15.438812742543458
aF-15.546514735477325
aF-15.607766031419871
aF-15.698182844635419
aF-15.799349186333782
aF-15.878124843780117
aF-15.988248750343711
aF-16.09797360049358
aF-16.17346646813484
aF-16.29367371933948
aF-16.366613963951437
aF-16.45530014308244
aF-16.529133439210383
aF-16.651930637354
aF-16.693411220594527
aF-16.801326909680355
aF-16.88087482576387
aF-16.971646439117894
aF-17.061450418325723
aF-17.14683906021338
aF-17.250581500639594
aF-17.366245970969242
aF-17.468232215035435
aF-17.60078280541152
aF-17.723661403118538
aF-17.82364186160644
aF-17.91962233741348
aF-18.024306270027548
aF-18.02783043388346
aF-18.133529466381074
aF-18.096168906306083
aF-18.136098902455814
aF-18.113248800412585
aF-18.099026020600178
aF-18.109001604409563
aF-18.080779214662456
aF-18.033971452145796
aF-17.978864428893708
aF-17.96214856522335
aF-17.951858342031187
aF-17.926414654809513
aF-17.958866196429437
aF-17.917887938085467
aF-17.935643291790242
aF-17.927272255377666
aF-17.939234200569565
aF-17.928454696454416
aF-17.933093089141188
aF-17.935797880385355
aF-17.925991704695438
aF-17.879845019130016
aF-17.773534419665904
aF-17.698460071351306
aF-17.614441712044727
aF-17.551865595875466
aF-17.430614819735577
aF-17.300009812151657
aF-17.186257792954926
aF-17.10387889967599
aF-17.007150010931312
aF-16.91537380085038
aF-16.83342716038008
aF-16.743111136332747
aF-16.66264714100677
aF-16.569536367639365
aF-16.444373297628974
aF-16.369971200209324
aF-16.316192915143485
aF-16.165117928999308
aF-16.084680132930043
aF-15.980881201304996
aF-15.885465226800164
aF-15.779910944478555
aF-15.710485944267043
aF-15.609654180232582
aF-15.485144309496823
aF-15.379366718748928
aF-15.324299884345443
aF-15.272826084969836
aF-15.207186278055257
aF-15.187466481260083
aF-15.160487002288507
aF-15.103114364828851
aF-15.082270045435994
aF-15.087816225014011
aF-15.087454090527961
aF-15.082558297221096
aF-15.129278256494864
aF-15.156094047120918
aF-15.193297491013107
aF-15.223962463566803
aF-15.244656897169241
aF-15.242042623258893
aF-15.225841542459502
aF-15.177854104927606
aF-15.109316817011642
aF-15.049757581815204
aF-14.956221718853605
aF-14.873637025675905
aF-14.761713052938866
aF-14.667416305969866
aF-14.569368733809245
aF-14.468287359576122
aF-14.384083542236574
aF-14.289207936683065
aF-14.223978468418164
aF-14.097269203090509
aF-14.024691424850461
aF-13.9663651499264
aF-13.89719658110103
aF-13.823090293750658
aF-13.760375303836309
aF-13.599532543358324
aF-13.486661569883287
aF-13.471838032189295
aF-13.382815667279358
aF-13.208810313920008
aF-13.125403120694557
aF-13.072883912914488
aF-12.904839898767415
aF-12.813848730541345
aF-12.739337852023075
aF-12.602226128802748
aF-12.462611837240157
aF-12.340061559776514
aF-12.246112709127297
aF-12.169356849724702
aF-12.133591096051576
aF-12.098623306201883
aF-12.036998275844963
aF-12.000339741707558
aF-11.98281146284877
aF-11.943019203154076
aF-11.93492232145113
aF-11.924151971874332
aF-11.923213117024702
aF-11.944624980747836
aF-11.973157226983083
aF-12.003188991309568
aF-12.038054424339302
aF-12.047894201870742
aF-12.038739045641227
aF-11.9789574126449
aF-11.867482955301188
aF-11.793991727630036
aF-11.683802329022514
aF-11.566347885230577
aF-11.48020100218195
aF-11.375908632968
aF-11.253944170136172
aF-11.193926820544673
aF-11.058818283340909
aF-11.023359457877666
aF-10.887618505274682
aF-10.828829307561252
aF-10.76556143821627
aF-10.701355834479012
aF-10.673810133823652
aF-10.61658227041796
aF-10.576170523900966
aF-10.548693838846336
aF-10.484919248614307
aF-10.422485157113309
aF-10.370859670581282
aF-10.261313380317405
aF-10.132686147164817
aF-10.068781792391384
aF-9.988591594709037
aF-9.882800876717104
aF-9.780122821120303
aF-9.690138351249104
aF-9.578914026772926
aF-9.463679612692601
aF-9.419292556894806
aF-9.328031879703312
aF-9.230073178370398
aF-9.190145868997766
aF-9.142209371248313
aF-9.08832910976983
aF-9.078983335168134
aF-9.0153037927634
aF-8.927650019547958
aF-8.875091903099927
aF-8.781909391935013
aF-8.683946150498533
aF-8.596994138820362
aF-8.487917590358323
aF-8.393552045038232
aF-8.330293378006692
aF-8.238127313547734
aF-8.17871195631374
aF-8.092322387897905
aF-8.03117066592101
aF-8.029015006672052
aF-7.9650350466393185
aF-7.951772326458815
aF-7.918258895793204
aF-7.884054366384977
aF-7.88516473874564
aF-7.862447041182546
aF-7.880742209541226
aF-7.8901353731504935
aF-7.879549583871343
aF-7.9081257194202905
aF-7.927935217117838
aF-8.00312356698662
aF-8.0397248062227
aF-8.07894883302141
aF-8.066860980125174
aF-8.103383410825783
aF-8.108880800312651
aF-8.120643089710052
aF-8.070593478155708
aF-7.977847361948725
aF-7.898253233409588
aF-7.812211430220145
aF-7.735621114809274
aF-7.65593428537814
aF-7.595572638914614
aF-7.50113117457134
aF-7.404763052062893
aF-7.32380644312493
aF-7.215731757973551
aF-7.119852800057418
aF-7.026734214077262
aF-6.930449014221895
aF-6.81021962127714
aF-6.7162696226804055
aF-6.6333461243215845
aF-6.520516575832708
aF-6.414670899161505
aF-6.342040812333066
aF-6.258626225859102
aF-6.216001234030165
aF-6.167515148422789
aF-6.131471112566953
aF-6.098580267727616
aF-6.088623499573327
aF-6.096359427790737
aF-6.114172673259907
aF-6.149298038621383
aF-6.180456346867483
aF-6.16849966298968
aF-6.0645344145843065
aF-5.962090244963648
aF-5.918824784675393
aF-5.793138761697705
aF-5.709653526318899
aF-5.6179420221442955
aF-5.522925038347199
aF-5.450565007819544
aF-5.336597124451333
aF-5.250205280744676
aF-5.153309738724961
aF-5.066292219379071
aF-4.958482714592361
aF-4.877379333547234
aF-4.7822660927036935
aF-4.673188706468049
aF-4.5610541449383515
aF-4.471275337326693
aF-4.366998237185664
aF-4.232038966558672
aF-4.105547462325667
aF-3.876471687748901
aF-3.5759328298878055
aF-3.248669981314814
aF-2.926724479597786
aF-2.5333940299185485
aF-2.1020126981182052
aF-1.6707034482664493
aF-1.4984013331434878
aF-1.6007231393232828
aF-1.684518752552173
aF-1.6045272476525263
aF-1.5706903619014467
aF-1.5244531872002338
aF-1.2884089114925852
aF-1.0024337134878154
aF-0.7925458402709876
aF-0.730091980621373
aF-0.6884428739864733
aF-0.6194000848940845
aF-0.5241748492034698
aF-0.42632674380263375
aF-0.26292859015218095
aF-0.029888145241358383
aF0.13136107803611802
aF0.3272892704366991
aF0.5213179254253765
aF0.6752537212295622
aF0.8237192595087971
aF0.9563465181534387
aF1.0843233433470527
aF1.1816519690715084
aF1.2586331063655676
aF1.2972039126406456
aF1.355441611281774
aF1.4044659815785647
aF1.452259001754163
aF1.4725025969779708
aF1.4542167493011364
aF1.4173286420043836
aF1.4039444466514301
aF1.410920817371594
aF1.4167461725393664
aF1.4194766738699711
aF1.4341138662383215
aF1.4328454701196072
aF1.459202182208503
aF1.452195602914527
aF1.456955105174104
aF1.4519697379381677
aF1.4791547897374098
aF1.4803407780213327
aF1.5030134792213048
aF1.493485499358063
aF1.5063949959870246
aF1.5160347810385129
aF1.535881954899848
aF1.538912742667789
aF1.5446668490828952
aF1.5707924884769418
aF1.5715000852033167
aF1.5697459160736493
aF1.4391212816178036
aF1.2537877703349383
aF1.0486518249651406
aF0.8724180483303887
aF0.6758258003426082
aF0.5061418897821479
aF0.3385176083766936
aF0.22636925677605768
aF0.04205355405142852
aF-0.13918333285544188
aF-0.29256183381546935
aF-0.4742061907616987
aF-0.6691008961061272
aF-0.8821629486656699
aF-1.3877487638231645
aF-1.54110785182845
aF-1.579127578384379
aF-1.5771124146654831
aF-1.753831178509368
aF-2.0907220276742082
aF-2.3280734176576705
aF-2.4827441714398946
aF-2.5881209021133613
aF-2.669266884644531
aF-2.767107193759784
aF-2.9798007672307296
aF-3.211908907297995
aF-3.3938724762373242
aF-3.542084599892262
aF-3.6802533186716544
asS'yaw'
p5
(lp6
F0.015247315102523439
aF0.028469396295654616
aF0.010276001662420603
aF0.017857102754315554
aF0.009993874800743948
aF0.011505391241132779
aF0.029459469215247475
aF0.018518100880255104
aF0.010108877808066966
aF0.01941824161842502
aF0.039545314244572236
aF0.022093156954259095
aF0.02388459927248675
aF0.028276434899701032
aF0.022695906443155032
aF0.016515147436051963
aF0.014196737727964868
aF0.012383351378067252
aF0.005703151989857252
aF0.025064207233791384
aF0.01365149777795628
aF0.008261378287420676
aF0.006743758820334231
aF0.007785523235563701
aF-0.00018981801701346542
aF-0.004823365093440095
aF-0.018402438644481458
aF-0.031194281640300258
aF-0.02972421414424036
aF-0.03024220370815856
aF-0.023325010252018857
aF-0.01784929113511091
aF-0.015493806750841875
aF-0.02424688811098657
aF-0.021292821299397746
aF0.008551332030368546
aF0.012527642577752997
aF0.020603735392202668
aF0.02484853326741199
aF0.03608167245201804
aF0.01690335539473538
aF0.040956125361366495
aF0.023316368613733592
aF0.017648896363810906
aF-0.006776336420509837
aF0.018608771294237953
aF0.024830877176143313
aF0.036959873041781034
aF0.02858332828885377
aF0.022460109936071383
aF0.017150248627222555
aF0.019118405248357354
aF-0.0020248253528157728
aF0.011776295122755841
aF0.003431987318662033
aF0.01112103479012891
aF0.0008221434012770893
aF-0.011633168176459001
aF-0.010372093533218857
aF-0.010561845972627316
aF-0.0023028758884424435
aF0.015335409213687824
aF0.008867194584201208
aF0.008763786622770572
aF0.021834505368543398
aF0.018573441118485887
aF0.01346070467192871
aF0.002306870731814726
aF-0.010950145608630528
aF-0.00985020372560812
aF0.026456749000451463
aF0.15346876654406327
aF0.3104334974512997
aF0.4208458192565523
aF0.5326790810373765
aF0.6031924772180842
aF0.6098627657915144
aF0.5748460120238416
aF0.46652036856059426
aF0.35564310709596425
aF0.25352166031038453
aF0.1555730622794356
aF0.11969427126120617
aF0.07448445015070267
aF0.05479938480839663
aF0.05948920267504365
aF0.06407058004289104
aF0.07045651201899662
aF0.068556620029293
aF0.040359071675873236
aF0.027999732707134784
aF0.02994885862773999
aF0.03580733177969142
aF0.033418402564257675
aF0.03379883198772526
aF0.018327309182784513
aF0.012822781443991462
aF-0.0033525337389811783
aF0.013916651278038962
aF-0.006398381546920875
aF-0.005378314418430027
aF0.014255313638193729
aF0.004847947999129581
aF0.007464310772578056
aF0.013623028928460196
aF0.016135921061627968
aF0.02532144136958971
aF0.029175265018345633
aF0.04323787597225418
aF0.034362006027711334
aF0.016726119732700252
aF0.0032026621512540013
aF0.0061501700610004685
aF0.024356916646583127
aF0.027854212793442846
aF0.025224230264774633
aF0.02823342126134505
aF0.02548145449439614
aF0.014274431215190455
aF0.00973693104094348
aF0.018481812151445207
aF-0.0007298658502676412
aF0.026997061927321025
aF0.04859239745275204
aF0.09255921848605778
aF0.16199538579439535
aF0.2775999611652867
aF0.3828282900558561
aF0.4473556703412601
aF0.5295146584835634
aF0.598557787051913
aF0.680665661830815
aF0.7809244368845679
aF0.8385250902617514
aF0.9119701218218629
aF1.001337473525683
aF1.05352595461059
aF1.135583831313228
aF1.1727693798899108
aF1.2050223651816725
aF1.2678237955764509
aF1.3266940191192969
aF1.3869219112306006
aF1.4531737888910474
aF1.5184319828314345
aF1.5494742583702932
aF1.5631919984555716
aF1.5536148906699938
aF1.5692358909129305
aF1.5656375411601124
aF1.5747302488565793
aF1.5758628192938287
aF1.4607018945286134
aF1.3551453281035113
aF1.2785439231765718
aF1.1548322661696397
aF1.0851035478114117
aF0.965803861182762
aF0.8750368702829276
aF0.7688524300183136
aF0.6778033419495585
aF0.587260541499909
aF0.4956165144079577
aF0.41355640330867016
aF0.31682449959787184
aF0.23819444027600378
aF0.13788714487189813
aF0.07135741785091608
aF0.03911666544249705
aF0.022378327983943826
aF0.007581279936984261
aF0.005128916288639488
aF0.011305931892727846
aF0.007635750998803705
aF0.004550887858348183
aF0.00808923879180779
aF-0.0018488267347016559
aF-0.004012759292265112
aF-0.002749069079354494
aF-0.007767722324665057
aF0.004956254679311381
aF0.013681162635340813
aF0.018569322384355307
aF0.030971884804041182
aF-0.0027680428279011145
aF-0.06211539073997567
aF-0.19105887535252236
aF-0.2900116684845623
aF-0.39957112791811245
aF-0.49371920896820115
aF-0.5857791921683849
aF-0.6991983185037108
aF-0.8061159906674724
aF-0.9069761523263651
aF-1.0112207491155936
aF-1.1119552002178088
aF-1.2444550283908042
aF-1.349316494765079
aF-1.455013090176675
aF-1.5425720917110644
aF-1.5994055820579516
aF-1.6050090345436918
aF-1.6132198870128283
aF-1.6015320223748881
aF-1.6009235882683226
aF-1.5876695953111313
aF-1.5764103632245052
aF-1.5484628291378109
aF-1.4846226476827522
aF-1.3535067821946098
aF-1.248050534842207
aF-1.1240905712754847
aF-1.0460363387465867
aF-0.9195165733717698
aF-0.797135709814016
aF-0.6762565275923498
aF-0.5645755282580301
aF-0.4266427679780498
aF-0.3308150506768751
aF-0.2327495574082287
aF-0.16996435243430805
aF-0.10760474490295358
aF-0.056363465724710855
aF-0.008051893946920815
aF0.010582006580815309
aF0.008754310007463805
aF-0.026250639085614324
aF-0.015468764703907519
aF-0.032785620958092086
aF-0.02378384478091192
aF-0.009884868001869333
aF-0.025324035928670063
aF0.0006961891100016808
aF0.0097510939126945
aF0.09068122395955544
aF0.16149095037455627
aF0.2734453051556563
aF0.4146787211441929
aF0.5699541525138755
aF0.6864580349224276
aF0.8009727863458656
aF0.7929880377613545
aF0.9547054144580085
aF1.053682290027303
aF1.1943658815154543
aF1.2344597935074229
aF1.3242211899325982
aF1.401840525937729
aF1.48771837589604
aF1.5086903920900538
aF1.4935434456773529
aF1.4999887010408228
aF1.5567029581061531
aF1.5468511298438692
aF1.5550814359535015
aF1.5457751721219224
aF1.5739119474383871
aF1.5653484451878845
aF1.5692418214889898
aF1.7514692865435182
aF1.9010236812176213
aF1.988865384989522
aF2.0630559027797646
aF2.168608047770938
aF2.2769520783016257
aF2.444525053001734
aF2.5131540505483785
aF2.6576841033954732
aF2.7645369076660185
aF2.8125338185128292
aF2.9113467827233004
aF2.9740352653069237
aF3.0541929398715517
aF3.0797250138043135
aF3.1129847281366536
aF3.0644068274082197
aF3.0811796516210284
aF3.0431635005312736
aF3.0896772079357793
aF3.129259559312668
aF-3.1192757864637772
aF-3.123545370877437
aF-3.0984338237030844
aF-3.09233176493552
aF3.134655291649656
aF3.019324466953219
aF2.900861225005862
aF2.8062632822255336
aF2.6969903865775926
aF2.5970098970212305
aF2.488987201975397
aF2.403960229016101
aF2.288886034617413
aF2.1900690864198182
aF2.076667129948261
aF1.9671495318802763
aF1.873974277653476
aF1.7603615046130674
aF1.6847600471073438
aF1.6303720379726903
aF1.5689725097025267
aF1.594498644184755
aF1.6021655066762872
aF1.6586829607507287
aF1.7674622493361885
aF1.8765127434801774
aF1.9586765513154085
aF2.069043131518137
aF2.2134542493045664
aF2.3305718494166787
aF2.461993940290658
aF2.5733089539782457
aF2.6910356041026002
aF2.7902311080764584
aF2.9278384999958216
aF3.0275798892087082
aF3.124095973922924
aF-3.140694849416639
aF-3.133488916251113
aF-3.136268162638726
aF-3.1339229536553272
aF-3.1394662655336085
aF-3.1382135804774087
aF3.1412954833159294
aF3.1404020859484456
aF3.1296986040870065
aF3.1321710146963198
aF3.125702250858626
aF3.127923156393217
aF3.1335199237785907
aF-3.12643068058208
aF-3.1191005097093583
aF-3.131494889066084
aF3.0384979391136606
aF2.9028108846467022
aF2.7773295549919648
aF2.6826141905820386
aF2.602112403104821
aF2.5154076325991532
aF2.4264211630166703
aF2.3368218506495246
aF2.2268801074641886
aF2.1144534365481245
aF2.0551706728720354
aF1.9188051069536647
aF1.8207966676512843
aF1.7225311235204648
aF1.6566557654729046
aF1.5906254178620949
aF1.5754000659440146
aF1.6035729593441987
aF1.7007490877838523
aF1.8462151959667936
aF1.964923677953191
aF2.076471922520649
aF2.259406467816268
aF2.36988760731576
aF2.4910434368191985
aF2.6226963206070097
aF2.737733958513153
aF2.8457565734528174
aF2.9477589301590097
aF3.0384519483303842
aF-3.1338677139197757
aF-3.008971390194633
aF-2.905325781368442
aF-2.768469703801685
aF-2.683296144971211
aF-2.551545356773038
aF-2.4754137471918916
aF-2.4341501047666285
aF-2.4159460919971316
aF-2.414118452403246
aF-2.4942994521303046
aF-2.5791021861056516
aF-2.696304283014223
aF-2.7503810395303194
aF-2.858605807353646
aF-2.912428065959033
aF-3.0037920770692392
aF-3.0737500059102953
aF3.1340287937483695
aF3.047370896606584
aF2.9432738365461746
aF2.8344574293809575
aF2.74361982477515
aF2.620131490282655
aF2.505195855763174
aF2.4601840558090733
aF2.4193654797660558
aF2.4498925828348135
aF2.482504922393246
aF2.494884038521537
aF2.530371302567895
aF2.6359585946167177
aF2.7497822420847218
aF2.8864213268701158
aF2.969587382708368
aF3.084800164483969
aF-3.073288941982932
aF-2.954527509860374
aF-2.817119478608368
aF-2.6949293137550363
aF-2.6074241061840358
aF-2.5434410320602536
aF-2.4092672192789384
aF-2.313141740186078
aF-2.2558007829123214
aF-2.1786399693030183
aF-2.0986397694127845
aF-2.0231174877370366
aF-1.9429250778567848
aF-1.8636207122431514
aF-1.7630948259457253
aF-1.6529640487246866
aF-1.561790668703259
aF-1.54007897923224
aF-1.555427303710447
aF-1.5571394794614921
aF-1.5722950743717712
aF-1.5513497652182044
aF-1.6714685543371703
aF-1.790975048697659
aF-1.9048332815898994
aF-1.9939303306425653
aF-2.1220716950330547
aF-2.1629342285792266
aF-2.2106429663004596
aF-2.2958518569401254
aF-2.408133420518935
aF-2.4941954168246903
aF-2.6084694896528915
aF-2.69243928219885
aF-2.805328910877878
aF-2.8942213517106556
aF-3.0434793093314823
aF-3.119958743114594
aF3.0929527205820726
aF3.0768857302085095
aF2.991698124185239
aF2.9021820145557196
aF2.7970062077604156
aF2.6820888054743772
aF2.600098831406523
aF2.468407828082514
aF2.333916846178008
aF2.2084646740429137
aF2.0664277637680275
aF1.935532651789798
aF1.7865718319514177
aF1.6855139340011875
aF1.783131911273178
aF1.930315823786661
aF2.0334637335010703
aF2.164619720546923
aF2.2605339099991952
aF2.383478698454247
aF2.517275212376788
aF2.5625670675973637
aF2.643959088480116
aF2.715365482658323
aF2.7817059249187057
aF2.8470386824856737
aF2.935110076868628
aF2.975742885446784
aF2.989085553326908
aF3.013624582640783
aF3.0549880901536017
aF3.091879165406631
aF3.1015690869073653
aF3.119958885973359
aF3.1105127286608876
aF3.090124310646251
aF3.0924018090710144
aF3.0815540963585453
aF3.13800552733313
aF3.1383788048035335
aF3.1050167636854455
aF-3.062986049746116
aF-3.140830429276055
aF3.1247154100089434
aF3.121261396269447
aF-3.1403479452807375
aF3.120094716947275
aF3.1188687012531875
aF3.102205100132107
aF3.055260452248656
aF2.8480028317675514
aF2.6507931016696076
aF2.479566080066237
aF2.4083184707084815
aF2.404143266700698
aF2.3767625399341483
aF2.3911393709379847
aF2.5474519289059296
aF2.695303394442723
aF2.798300046283622
aF2.9685877553767512
aF-3.141142416780925
aF-2.9536928576760917
aF-2.7882631511019658
aF-2.6460063172031782
aF-2.47347488325599
aF-2.328503988925846
aF-2.212222147626717
aF-2.1467962554341082
aF-2.095879929620612
aF-2.026477870177135
aF-1.9264544540487178
aF-1.8315942223380295
aF-1.7232004312729918
aF-1.6698177242426018
aF-1.6313380211497486
aF-1.6236494361411111
aF-1.6283363295692612
aF-1.642151590968532
aF-1.6293636439264345
aF-1.6360875074704768
aF-1.6255065353397928
aF-1.6206979666096732
aF-1.6083787732481583
aF-1.5803215832924926
aF-1.5778592654152959
aF-1.6031808164855323
aF-1.5980919611173363
aF-1.6065966105372955
aF-1.6196222650291119
aF-1.6510918657445126
aF-1.6448059571859877
aF-1.6376425798538443
aF-1.6285605074124134
aF-1.6333642018080177
aF-1.6223995634408428
aF-1.533922678598005
aF-1.324797274405741
aF-1.0773854989276217
aF-0.8226935010348043
aF-0.5837272446269137
aF-0.32840832023352806
aF-0.10381782040902152
aF-0.049892666869125135
aF-0.037569701395404616
aF-0.019438438598820218
aF-0.04857658580482438
aF-0.05897291605078844
aF-0.059502657585165125
aF-0.0588259471213274
aF-0.1972788047265994
aF-0.37814494714188496
aF-0.6009628828695346
aF-0.7816446642780758
aF-0.47426159766638776
aF-0.28464719515019804
aF-0.10348157737473006
aF-0.03960610543937073
aF-0.04751739321890923
aF-0.015675313296554635
aF0.011459398121198101
aF-0.0047266793829754405
aF-0.0359763181712213
aF-0.01792030621205536
aF-0.040377854380208175
aF-0.03626710898663025
aF-0.04253414059697477
as.