(dp0
S'y'
p1
(lp2
F-0.0053484749452143
aF-0.0107686066397193
aF-0.006965840059779991
aF-0.004526869060654111
aF-0.010470313817022833
aF-0.00381191357082003
aF-0.0022954144479209793
aF-0.0067769402305097315
aF0.005284005438679837
aF0.022885899808032413
aF-0.006774712232043071
aF-0.027821173976531346
aF-0.04902719714019052
aF-0.0726499823928186
aF-0.076611529277568
aF-0.07579863479502115
aF-0.0688281817675775
aF-0.056274981926355036
aF-0.06591357402534616
aF-0.07003170583489196
aF-0.06383881078127952
aF-0.06650473279886146
aF-0.08410710527812165
aF-0.08459172052914236
aF-0.07927935800180078
aF-0.07956237211249052
aF-0.08490034899286077
aF-0.08650965364219185
aF-0.08837174560720859
aF-0.09890098197421943
aF-0.1045005450125445
aF-0.2022910249057805
aF-0.3141004906288977
aF-0.44323894497828664
aF-0.5614367850787789
aF-0.6487096471453158
aF-0.672319012891861
aF-0.666057542131992
aF-0.6584711395404133
aF-0.6087248824759438
aF-0.6032264941099004
aF-0.6075954269248308
aF-0.622371859441387
aF-0.6221973902131704
aF-0.6405399740446824
aF-0.6532286384965095
aF-0.6708411250835996
aF-0.6775683162043621
aF-0.6832271167223017
aF-0.6877288594213075
aF-0.6901356414358104
aF-0.6980051633793946
aF-0.6877662329626834
aF-0.6928730375818506
aF-0.6910402948974053
aF-0.6917540950526776
aF-0.7197949855830134
aF-0.7321757353617525
aF-0.7322865693431708
aF-0.731904465021526
aF-0.728634176680815
aF-0.713455282246929
aF-0.69859440818866
aF-0.6848896378055875
aF-0.7063899243842189
aF-0.723725143398058
aF-0.7504067900509208
aF-0.7836852894654565
aF-0.7929400461399194
aF-0.7639279165374377
aF-0.751299668880643
aF-0.7511677257974376
aF-0.7748452764547559
aF-0.7762804347394583
aF-0.8228457961276776
aF-0.9200176689638563
aF-1.0812179837208216
aF-1.2322622185365266
aF-1.3890955616186396
aF-1.540738080758214
aF-1.6825024272489086
aF-1.8617461931568045
aF-2.0324114673137235
aF-2.211759919203577
aF-2.3711343952507287
aF-2.535941176223453
aF-2.699447106934243
aF-2.8731305505498312
aF-3.0164273975503972
aF-3.200630927622279
aF-3.346114887074095
aF-3.4656108775429972
aF-3.5254061469464153
aF-3.575118140839465
aF-3.5682656821895797
aF-3.5789595350399264
aF-3.5476016463242597
aF-3.5537917551492066
aF-3.5536572452808164
aF-3.5229081611933095
aF-3.5453862738073485
aF-3.581771406601633
aF-3.6039088059986084
aF-3.6128797134844692
aF-3.6317034732613047
aF-3.6314131434429138
aF-3.5985566587351143
aF-3.5067701219079668
aF-3.362644565211916
aF-3.2083465240427493
aF-3.04416404365039
aF-2.870436313723805
aF-2.71425686615999
aF-2.5019521724599456
aF-2.3282815166335444
aF-2.192277930954782
aF-2.0181989003281915
aF-1.8533064576712748
aF-1.6724487700279018
aF-1.5423864532280245
aF-1.4463363953892605
aF-1.3478918634575585
aF-1.369072692272518
aF-1.3405345843484566
aF-1.3745638208215116
aF-1.4257871268529638
aF-1.4516845166346064
aF-1.4609046069467055
aF-1.4804781773622433
aF-1.489920878353281
aF-1.5175277501413258
aF-1.5532802933564176
aF-1.596705154903862
aF-1.7633179824837348
aF-1.962745892175065
aF-2.1218692724866477
aF-2.253765316945611
aF-2.4488440297386997
aF-2.587615128979566
aF-2.7133057108264076
aF-2.871018882742856
aF-3.044804708894147
aF-3.204003402984706
aF-3.3312068930869967
aF-3.5287895300176597
aF-3.6714025967482633
aF-3.764300367532362
aF-3.819227842395252
aF-3.840667592327895
aF-3.8163939027150664
aF-3.777944043218927
aF-3.7470227074799864
aF-3.7245867025228683
aF-3.6736677478495716
aF-3.6877986934950493
aF-3.6474469913988585
aF-3.6415612345637576
aF-3.583387483194794
aF-3.5734103812106164
aF-3.6606822199789
aF-3.806400232013794
aF-3.9426690962242006
aF-4.100276941664891
aF-4.284935318505653
aF-4.454027442793295
aF-4.6353782916149395
aF-4.796595374564795
aF-4.903809136462318
aF-5.117638782717979
aF-5.2205557729138565
aF-5.302769835128508
aF-5.3923243792332745
aF-5.442119289311112
aF-5.478909493377302
aF-5.455349260008447
aF-5.357655617937374
aF-5.310311441770978
aF-5.332338588204312
aF-5.3070658263581345
aF-5.2486340095576285
aF-5.215447062102724
aF-5.215391311040086
aF-5.189678950254153
aF-5.175119577020779
aF-5.197282251277338
aF-5.307329365060141
aF-5.485664890754317
aF-5.637395321047607
aF-5.799348740877814
aF-5.997281386676625
aF-6.141025637523181
aF-6.353763111752117
aF-6.523389770432428
aF-6.7144391942667845
aF-6.839722036932539
aF-6.914316815116914
aF-6.984022775916529
aF-6.916044358132066
aF-6.846058498692878
aF-6.776095487543707
aF-6.643747193178532
aF-6.507074819981414
aF-6.425776890089092
aF-6.261994025653558
aF-6.171153285357546
aF-6.158959506611195
aF-6.175152966911158
aF-6.171731151618166
aF-6.193248748902741
aF-6.3355412451894155
aF-6.463377901952805
aF-6.587237189596122
aF-6.681599044906114
aF-6.7488073038982215
aF-6.880260486934848
aF-6.912954608389827
aF-6.930923778606432
aF-6.876125636151295
aF-6.740081037055242
aF-6.563868318047799
aF-6.370741262931271
aF-6.186524175614752
aF-6.019058284378256
aF-5.870154488674736
aF-5.717587355198608
aF-5.541936235138598
aF-5.4220814206020345
aF-5.229771107895516
aF-5.024978845993633
aF-4.838711678852985
aF-4.69702891711809
aF-4.599322160712402
aF-4.521987887064556
aF-4.529408361888298
aF-4.5166216327417255
aF-4.544199294827807
aF-4.496268421391248
aF-4.568110383167845
aF-4.64825601175374
aF-4.797585954890178
aF-4.924572876371646
aF-5.117799433761051
aF-5.328300994857926
aF-5.53977041883907
aF-5.726099253936877
aF-5.835604617978085
aF-5.862131834364965
aF-5.897268123005433
aF-5.889549920125733
aF-5.884470827417429
aF-5.890210713056912
aF-5.8591404196476615
aF-5.849383584686443
aF-5.851880982879673
aF-5.82850498599022
aF-5.798385922615858
aF-5.795610139014597
aF-5.787528377066944
aF-5.785832871072166
aF-5.781005209382875
aF-5.776742528703135
aF-5.774487874696729
aF-5.750229732606453
aF-5.751289806180635
aF-5.749582022997823
aF-5.746261483534736
aF-5.761817694122623
aF-5.737417219915805
aF-5.819366046338838
aF-5.861585911733297
aF-5.963488617562013
aF-6.149115086849082
aF-6.290819349130196
aF-6.438866086530237
aF-6.596407669911628
aF-6.6905254477380875
aF-6.739199010785038
aF-6.7273647398092145
aF-6.667526850543077
aF-6.58222293711052
aF-6.507434622342341
aF-6.35235899339583
aF-6.121047568881592
aF-5.972648482867134
aF-5.837055503935992
aF-5.664546706919713
aF-5.504741137844559
aF-5.302450879674553
aF-5.092367761951033
aF-4.89965999796382
aF-4.696022279939202
aF-4.496482045578803
aF-4.246537469520899
aF-4.043421074135328
aF-3.86010811604886
aF-3.6223817755698273
aF-3.40579325080534
aF-3.1927146150587324
aF-2.9685726128736776
aF-2.7577714536830387
aF-2.5317618324395155
aF-2.293311167650138
aF-2.101586267096525
aF-1.8525272313117684
aF-1.6429196931942198
aF-1.5025235868482252
aF-1.540006440407336
aF-1.2993204543591343
aF-0.8775004901719486
aF-0.7505054857330974
aF-0.446426302290964
aF-0.259439247487249
aF-0.0899604527066179
aF0.039599579607765056
aF0.15757777290151614
aF0.17837114619730043
aF0.1545805629293546
aF0.12011608407451094
aF0.1105741727045136
aF0.08827653848643008
aF0.07931460403795622
aF0.07228630296864277
aF0.07371682399012809
aF0.15465158816419686
aF0.385051067254801
aF0.5286641975099842
aF0.5629878129714303
aF0.5081696342312929
aF0.5463362499425828
aF0.56650624030486
aF0.561944378332977
aF0.5600496698165554
aF0.5341403537723892
aF0.5449612247297495
aF0.5436916318582892
aF0.5411185155288027
aF0.5667820920748988
asS'x'
p3
(lp4
F0.025922535383407892
aF0.017223981110298835
aF0.014638713872208262
aF0.01924996111785695
aF0.0062894640050869715
aF0.00596448109717039
aF-0.17265108448371308
aF-0.3696260516449088
aF-0.5133072296313109
aF-0.704719893057707
aF-0.8839539254722427
aF-1.0498404930138885
aF-1.258805717527271
aF-1.4679535679937463
aF-1.6626469560264336
aF-1.8721877351984668
aF-2.037945739644928
aF-2.235184989556777
aF-2.401449667932475
aF-2.5580618817034675
aF-2.7439254301595617
aF-2.901730859292376
aF-3.0747699776696784
aF-3.262951704007238
aF-3.41427443451024
aF-3.598896145052302
aF-3.769809037839161
aF-3.93978028764636
aF-4.129670045141771
aF-4.287799219564565
aF-4.4584516907739955
aF-4.601827169457677
aF-4.766924832199515
aF-4.912301192327742
aF-5.019231808233469
aF-5.1805013711306245
aF-5.354696973984391
aF-5.52142028056041
aF-5.704116419270137
aF-5.859124747875852
aF-6.019113558235595
aF-6.2034155998105165
aF-6.385309296231914
aF-6.552431027418869
aF-6.7197079768952115
aF-6.893800984691481
aF-7.061375360987748
aF-7.238123288073941
aF-7.412017018478361
aF-7.5988389240476195
aF-7.7889054231006565
aF-7.969369815451464
aF-8.159515389046339
aF-8.351311702330033
aF-8.521192072677959
aF-8.662869005153372
aF-8.853363133811243
aF-8.989343411929461
aF-9.142891296454177
aF-9.322136878559009
aF-9.465888169045183
aF-9.640118222572903
aF-9.81638351929245
aF-9.995525086717453
aF-10.165771892905545
aF-10.321714008567433
aF-10.466125147351498
aF-10.646651318671493
aF-10.807212374348168
aF-10.94801155303468
aF-11.108208541613253
aF-11.25655338559027
aF-11.433245395561318
aF-11.542265290580504
aF-11.686215482294061
aF-11.811906037428026
aF-11.93219708777436
aF-12.019161186429168
aF-12.06927159534824
aF-12.123366003866847
aF-12.21097487541022
aF-12.222166232036374
aF-12.19337219679359
aF-12.15221235512385
aF-12.123985148748366
aF-12.124591453966737
aF-12.107158532274333
aF-12.116571524457926
aF-12.135739964824687
aF-12.175325864757934
aF-12.271072061468683
aF-12.412848130438377
aF-12.553938324501217
aF-12.707527430289037
aF-12.857287021609029
aF-13.004236400531923
aF-13.154931070493602
aF-13.286890664778682
aF-13.4481568908714
aF-13.609083220866484
aF-13.761087674697528
aF-13.967492162971604
aF-14.12661730637717
aF-14.2954519315753
aF-14.49051116863163
aF-14.696597110181095
aF-14.877910987745135
aF-15.051471272571373
aF-15.195856838884229
aF-15.264258350845354
aF-15.330036135871175
aF-15.355502583004247
aF-15.345971672592098
aF-15.35084876083042
aF-15.341256386010663
aF-15.30438497833197
aF-15.329434805416941
aF-15.37713434295436
aF-15.414592163068482
aF-15.528055185089766
aF-15.747193885014882
aF-15.916004773402554
aF-16.079960662788604
aF-16.27298401099547
aF-16.460344267127795
aF-16.571465952525926
aF-16.728463667549587
aF-16.9361926484384
aF-17.03850498237029
aF-17.242865073292087
aF-17.421696190139627
aF-17.584799179439322
aF-17.817115301873606
aF-17.927670674152928
aF-18.051719907664587
aF-18.016653904684343
aF-18.048466534390947
aF-17.992949137271246
aF-18.034348484042265
aF-17.97255614324682
aF-17.93756515994354
aF-17.972704613956964
aF-17.928126817238972
aF-17.91733115459008
aF-17.887786591278363
aF-17.76553582366493
aF-17.59448500211288
aF-17.446214932791815
aF-17.267201912183147
aF-17.061038680377834
aF-16.908701823258387
aF-16.748268455212912
aF-16.603530928125206
aF-16.455097476900555
aF-16.314339265695555
aF-16.088547264404454
aF-15.936587966586558
aF-15.784437493595552
aF-15.583097939585782
aF-15.379922006829222
aF-15.225857130305087
aF-15.14215241899643
aF-15.063365020045048
aF-15.000658473993695
aF-15.00713248551925
aF-15.027351157614465
aF-15.08356809449794
aF-15.143282825247345
aF-15.064544013603514
aF-14.91577777295556
aF-14.75596359536569
aF-14.581320478274987
aF-14.382579158149648
aF-14.221799346403325
aF-14.061970646477496
aF-13.865440188896356
aF-13.662635353080113
aF-13.507120241822742
aF-13.355247596305624
aF-13.195429177545634
aF-13.054954812152186
aF-12.88196907864171
aF-12.664883663709825
aF-12.46313132442662
aF-12.246042046925277
aF-12.006467816389556
aF-11.812297344388364
aF-11.729622118736742
aF-11.708527243282976
aF-11.676924855656326
aF-11.676941124543465
aF-11.643234538617017
aF-11.620204210024468
aF-11.582860586926218
aF-11.450082911974029
aF-11.217731758641424
aF-11.063606754697087
aF-10.786845423446897
aF-10.658338734122493
aF-10.541642260503773
aF-10.440941281712634
aF-10.33958900755819
aF-10.227662804136664
aF-10.110178351883636
aF-10.00213572614506
aF-9.835357540762553
aF-9.648550017012417
aF-9.480251215667023
aF-9.293186927116022
aF-9.106223843680002
aF-9.009576917849651
aF-8.89696241356233
aF-8.808598282106962
aF-8.633310993416968
aF-8.496228930566064
aF-8.354548416514096
aF-8.1387786234384
aF-7.96204381280386
aF-7.802841639589696
aF-7.684543878112885
aF-7.62148389890337
aF-7.616878173154173
aF-7.622646228291314
aF-7.642324417772173
aF-7.651416332440146
aF-7.709161834813933
aF-7.713429490277756
aF-7.677711857432551
aF-7.656147478633315
aF-7.621815905675565
aF-7.503116803385241
aF-7.309020894129267
aF-7.134183991678367
aF-6.983166206170425
aF-6.810207783768761
aF-6.650110059828053
aF-6.478590009890543
aF-6.276050276843649
aF-6.083902641586107
aF-5.942780327465166
aF-5.858142839627399
aF-5.771887810846423
aF-5.743740164223524
aF-5.773244500518108
aF-5.689021361379225
aF-5.575535660543132
aF-5.409060724557772
aF-5.167775813515987
aF-4.979267987444445
aF-4.820914153210591
aF-4.672676003161755
aF-4.475703441243474
aF-4.318099128612748
aF-4.148377424833671
aF-3.964085629631728
aF-3.781383331019192
aF-3.5843663437660274
aF-3.4151985712598765
aF-3.263069025400364
aF-3.0788047883950656
aF-2.8565008892367
aF-2.710363565445784
aF-2.564222840964597
aF-2.3751253507082275
aF-2.120312884053
aF-1.8373139573338804
aF-1.5219153014836906
aF-1.2113971584548324
aF-0.9450307634922293
aF-0.667563011434537
aF-0.4706831191566986
aF-0.36031198825487365
aF-0.24648309961345746
aF-0.06368766386046901
aF0.06264780707011684
aF0.25761091685526133
aF0.4728341849301318
aF0.6833179390297202
aF0.8611703304094072
aF1.0448317001804523
aF1.2231656349407278
aF1.3507054251804538
aF1.4377851171659024
aF1.519533967562547
aF1.6566997877004825
aF1.7708804175812571
aF1.839516180271083
aF1.883577429781032
aF1.8872887583324818
aF1.8605563581517595
aF1.843164526160931
aF1.8766022512765976
aF1.8708930952435185
aF1.8591506096352524
aF1.8387303009838278
aF1.832445984780092
aF1.8199015073493439
aF1.8187844509445357
aF1.8188663236885227
aF1.8416911863649883
aF1.8459720537074185
aF1.8413919944032346
aF1.857256727890273
aF1.8676431115963483
aF1.8805123969680928
aF1.8717906360084366
aF1.8842481817296914
aF1.8635386435647774
aF1.7411747789496983
aF1.7410128446064723
aF1.7035390389074265
aF1.694122867410413
aF1.606538991305622
aF1.3899267142238603
aF1.1785775385841488
aF0.9440787139776905
aF0.7199018251521211
aF0.5546049992974077
aF0.3771866857825309
aF0.17661992194016857
aF-0.004818090246388657
aF-0.1904875740076833
aF-0.4200576796532692
aF-0.6382925737282716
aF-0.8501925744577669
aF-0.972683811273598
aF-1.081367140321312
aF-1.2833384940300228
aF-1.5532025601403003
aF-1.8723526276717295
aF-2.1032129256439145
aF-2.2656487063795616
aF-2.379959533696345
aF-2.5828249610969376
aF-2.858702340403899
aF-3.093320122121037
aF-3.2434834160333215
asS'yaw'
p5
(lp6
F0.02540307406064922
aF0.019809771597877113
aF0.03320936187380694
aF0.03723828233125391
aF0.03226972559076671
aF0.04209953260678443
aF0.005341080015991415
aF-0.013820825917408656
aF-0.05774671968050908
aF-0.04099594223802233
aF-0.007849130861890808
aF0.02444544822744007
aF0.05854862016604547
aF0.07841293793715823
aF0.06910664709114613
aF0.039544504158553685
aF0.0034485397307574793
aF-0.008884404128830924
aF0.003681525877858936
aF-0.012292103194435596
aF0.0036247523842830795
aF0.01717529127937637
aF0.0005529864717612713
aF-0.0011130267371097138
aF0.020430072272226756
aF0.009472867194844733
aF0.000978114538008717
aF-0.0023666457978200953
aF0.006663845464051991
aF0.024313755727140316
aF0.046242772973600924
aF0.1810083285422935
aF0.3069214803624049
aF0.44365066903817074
aF0.522312651498872
aF0.5086082062511615
aF0.3974525430850648
aF0.30667279247106866
aF0.16620261466041963
aF0.05665546241736515
aF0.027169354162272712
aF-0.00794261267775481
aF0.0008779055408229406
aF-0.002649209674903887
aF0.01884724486711823
aF0.02918135193510761
aF0.0464589407846823
aF0.041916104322056814
aF0.04201029866625539
aF0.04496854884410553
aF0.026549980125406776
aF0.01238079698220447
aF-0.0035419154453386484
aF-0.02502186784034873
aF-0.01236926298562327
aF0.027908362234792924
aF0.05081169536100236
aF0.03745446437820746
aF0.03966443246488475
aF0.011836475276043455
aF-0.016008278483675666
aF-0.023913033033349188
aF-0.031019074229886992
aF-0.011559245436641488
aF0.007482756474840623
aF0.03283732714880353
aF0.05548287960644051
aF0.08223780619391037
aF0.03993830557756739
aF0.008595010020936739
aF0.004806992927464754
aF0.02632927000693264
aF0.02278735985833299
aF0.051449810158918564
aF0.13165433731881346
aF0.3458576622140542
aF0.514221519261692
aF0.669695945761393
aF0.7567125325112439
aF0.8405919352991776
aF0.9777122974848398
aF1.145851475722009
aF1.2923944220787975
aF1.4380285039760652
aF1.508546113893875
aF1.5536091610208485
aF1.5582749331665744
aF1.556288011993895
aF1.54032441393298
aF1.460568411214805
aF1.3167363740076858
aF1.1356175464571863
aF0.9619800455498111
aF0.7881927450644568
aF0.614142682310591
aF0.43248241412623156
aF0.2779541150702799
aF0.27111642600020025
aF0.18143887304689416
aF0.10392525263357619
aF0.09236894823219456
aF0.0840986548002825
aF0.09839923776737097
aF0.10460400026990826
aF0.060626630097740566
aF0.03526906698468266
aF-0.04185086267837144
aF-0.1623732865214699
aF-0.35749542414200525
aF-0.5365403154282323
aF-0.7211965041481444
aF-0.9447670411719006
aF-1.0879525874538072
aF-1.30946122468846
aF-1.386809353247331
aF-1.452711991930073
aF-1.4467850029210683
aF-1.4430667955070164
aF-1.3874801213484558
aF-1.2283581815423374
aF-1.0149480368117019
aF-0.8169486323387155
aF-0.6384098517412812
aF-0.3902507086525761
aF-0.20670966861153817
aF-0.15933988862451345
aF-0.08047182120321161
aF-0.035631389697809095
aF-0.035919055159637614
aF0.013844173722408391
aF0.035739766320504164
aF0.05030798410854558
aF0.1578499203847728
aF0.3669447379043127
aF0.6324807178189572
aF0.8008664612587792
aF0.9802619848219281
aF1.1513647834375542
aF1.310014827835574
aF1.423819849262705
aF1.4450959918844157
aF1.521097155349779
aF1.5662511562662167
aF1.5688192885016008
aF1.6498045837436373
aF1.8958703425428094
aF2.092476754021581
aF2.287129700690644
aF2.4994987054405438
aF2.73123377797831
aF2.888864790126934
aF2.9639107293470337
aF3.080521548697216
aF3.085242139216708
aF3.1248185867623612
aF-3.1202594269420847
aF-3.081657053357715
aF-3.047046000061722
aF-3.1104913003475088
aF3.0219291027116357
aF2.8355385343243453
aF2.645441050195317
aF2.464050325728409
aF2.289566690858534
aF2.08225078780869
aF1.9000083398928107
aF1.7456455801458644
aF1.7231989339756313
aF1.7861801355805282
aF1.9585209709207156
aF2.1368770961829138
aF2.3018891235149255
aF2.486003056747124
aF2.6612879957064886
aF2.8720074468883854
aF3.0674577881662115
aF3.0901639191296
aF3.0888478457427864
aF3.118030167612563
aF-3.0937811149257377
aF-3.1035364938371193
aF-3.098819140748342
aF-3.0782608291579883
aF-3.070179428777472
aF3.100967055504939
aF2.887872773853842
aF2.6883207304183396
aF2.5160058697162726
aF2.332427073262552
aF2.1437027818668324
aF2.003514173957995
aF1.8228868622430259
aF1.8661555216335406
aF1.8429106796005217
aF2.030118678586784
aF2.2535428926412515
aF2.4324384498997857
aF2.7811972450797082
aF3.0039535515576943
aF3.141044748918652
aF-2.9207528113247645
aF-2.775796763246333
aF-2.6413439716646607
aF-2.5728472991224893
aF-2.5631261848947777
aF-2.7402473451593155
aF-2.850855997232206
aF-2.9248669810882584
aF-3.0835477165501124
aF3.01859669719372
aF2.820865283274345
aF2.6945643903218883
aF2.6446234397672645
aF2.5993754675770804
aF2.6176260682250243
aF2.644018998347908
aF2.8511067292210366
aF3.038072403217524
aF-2.9974501970120686
aF-2.759437520206085
aF-2.4807782158024776
aF-2.2319692608717445
aF-2.008405453813254
aF-1.9215375306445928
aF-1.7884827087069568
aF-1.6906016900511909
aF-1.7098891172922013
aF-1.69939722632892
aF-1.6534560832740701
aF-1.8268386547274837
aF-1.9790471239522656
aF-2.1277276834376955
aF-2.324524727250511
aF-2.4985405506400116
aF-2.687872865160839
aF-2.7391380839807957
aF-2.9027710562291067
aF-3.061156013425742
aF3.0200372527949644
aF2.8401699824663535
aF2.6621296500268974
aF2.4019692614100174
aF2.1771620745349995
aF1.9889979078802513
aF2.0193911343819675
aF2.154395378074438
aF2.4006072519208232
aF2.519800065789919
aF2.7038322669372223
aF2.8064496170775417
aF2.9027781666559473
aF3.0026756591791823
aF3.065127481277278
aF3.0848599322732793
aF3.122909439077487
aF-3.1388943056596017
aF-3.1398882776755093
aF-3.1401581169610555
aF-3.134734304893887
aF-3.133164468031662
aF-3.120034930481882
aF-3.094583629764141
aF-3.1304110452225924
aF-3.1157246253494923
aF-3.0061987465742566
aF3.107937596035961
aF-3.1099130307315606
aF3.0861007953594153
aF3.0314727721614303
aF2.960496140464274
aF2.8080218536559234
aF2.619548377436044
aF2.5271713255823287
aF2.433495379188996
aF2.4423500427485405
aF2.5260689155186435
aF2.7316935138275107
aF2.92914570668546
aF3.108841232052895
aF-3.0612585692975176
aF-2.954206397873562
aF-2.6518555803544777
aF-2.4209084017000153
aF-2.376480584263707
aF-2.312988733634633
aF-2.2326399137734936
aF-2.134698833108064
aF-2.010259258067524
aF-1.9083578902670588
aF-1.8039337408327258
aF-1.7733892213033067
aF-1.7054718506462008
aF-1.6315657324047945
aF-1.6291961943311044
aF-1.6008985951958523
aF-1.568438472138862
aF-1.5726269165888132
aF-1.565567459876274
aF-1.6210018675621651
aF-1.6262025299482603
aF-1.56201442244305
aF-1.598862421200681
aF-1.6797398730334456
aF-1.6379809101839176
aF-1.6168056285638588
aF-1.5893433746987118
aF-1.6073403089054128
aF-1.5997376866420305
aF-1.561897815963829
aF-1.5349042340118095
aF-1.4983991076299599
aF-1.5312533820178766
aF-1.2998651322826698
aF-1.0441913713382376
aF-0.7874809717974158
aF-0.5442287436814736
aF-0.28586183254058956
aF-0.1880878838153589
aF-0.1667469261855811
aF-0.09570544567575809
aF-0.06483615352665269
aF-0.05212093572257022
aF-0.028296184037804286
aF-0.15427452371846762
aF-0.40076896850391575
aF-0.5587334680527916
aF-0.3808984115699103
aF-0.2220272544001261
aF-0.18447354002715083
aF-0.13968952988489908
aF-0.10088608517456221
aF-0.013259742671083133
aF-0.024773532443834866
aF-0.0473913333472044
aF-0.0405377101178928
aF-0.05798781301794413
aF-0.038503794248232484
as.